target datalayout = "e-m:e-p270:32:32-p271:32:32-p272:64:64-i64:64-i128:128-f80:128-n8:16:32:64-S128"
target triple = "x86_64-pc-linux-gnu"

@.str.6 = private unnamed_addr constant [2 x i8] c"p\00", align 1
@.str.7 = private unnamed_addr constant [2 x i8] c"r\00", align 1
@.str.8 = private unnamed_addr constant [3 x i8] c"su\00", align 1
@.str.9 = private unnamed_addr constant [3 x i8] c"cd\00", align 1
@.str.10 = private unnamed_addr constant [3 x i8] c"ca\00", align 1
@.str.11 = private unnamed_addr constant [2 x i8] c"f\00", align 1
@.str.12 = private unnamed_addr constant [3 x i8] c"to\00", align 1
@.str.13 = private unnamed_addr constant [3 x i8] c"nf\00", align 1
@.str.14 = private unnamed_addr constant [3 x i8] c"pr\00", align 1
@.str.15 = private unnamed_addr constant [3 x i8] c"dl\00", align 1
@.str.16 = private unnamed_addr constant [4 x i8] c"oom\00", align 1

; Function Attrs: nounwind uwtable
define dso_local i32 @decode_state_char(ptr noundef %0) #0 {
  %2 = alloca i32, align 4
  %3 = alloca ptr, align 8
  store ptr %0, ptr %3, align 8
  %4 = load ptr, ptr %3, align 8
  %5 = call i32 @xstrcasecmp(ptr noundef %4, ptr noundef @.str.6)
  %6 = icmp ne i32 %5, 0
  br i1 %6, label %8, label %7

7:                                                ; preds = %1
  store i32 0, ptr %2, align 4
  br label %59

8:                                                ; preds = %1
  %9 = load ptr, ptr %3, align 8
  %10 = call i32 @xstrcasecmp(ptr noundef %9, ptr noundef @.str.7)
  %11 = icmp ne i32 %10, 0
  br i1 %11, label %13, label %12

12:                                               ; preds = %8
  store i32 1, ptr %2, align 4
  br label %59

13:                                               ; preds = %8
  %14 = load ptr, ptr %3, align 8
  %15 = call i32 @xstrcasecmp(ptr noundef %14, ptr noundef @.str.8)
  %16 = icmp ne i32 %15, 0
  br i1 %16, label %18, label %17

17:                                               ; preds = %13
  store i32 2, ptr %2, align 4
  br label %59

18:                                               ; preds = %13
  %19 = load ptr, ptr %3, align 8
  %20 = call i32 @xstrcasecmp(ptr noundef %19, ptr noundef @.str.9)
  %21 = icmp ne i32 %20, 0
  br i1 %21, label %23, label %22

22:                                               ; preds = %18
  store i32 3, ptr %2, align 4
  br label %59

23:                                               ; preds = %18
  %24 = load ptr, ptr %3, align 8
  %25 = call i32 @xstrcasecmp(ptr noundef %24, ptr noundef @.str.10)
  %26 = icmp ne i32 %25, 0
  br i1 %26, label %28, label %27

27:                                               ; preds = %23
  store i32 4, ptr %2, align 4
  br label %59

28:                                               ; preds = %23
  %29 = load ptr, ptr %3, align 8
  %30 = call i32 @xstrcasecmp(ptr noundef %29, ptr noundef @.str.11)
  %31 = icmp ne i32 %30, 0
  br i1 %31, label %33, label %32

32:                                               ; preds = %28
  store i32 5, ptr %2, align 4
  br label %59

33:                                               ; preds = %28
  %34 = load ptr, ptr %3, align 8
  %35 = call i32 @xstrcasecmp(ptr noundef %34, ptr noundef @.str.12)
  %36 = icmp ne i32 %35, 0
  br i1 %36, label %38, label %37

37:                                               ; preds = %33
  store i32 6, ptr %2, align 4
  br label %59

38:                                               ; preds = %33
  %39 = load ptr, ptr %3, align 8
  %40 = call i32 @xstrcasecmp(ptr noundef %39, ptr noundef @.str.13)
  %41 = icmp ne i32 %40, 0
  br i1 %41, label %43, label %42

42:                                               ; preds = %38
  store i32 7, ptr %2, align 4
  br label %59

43:                                               ; preds = %38
  %44 = load ptr, ptr %3, align 8
  %45 = call i32 @xstrcasecmp(ptr noundef %44, ptr noundef @.str.14)
  %46 = icmp ne i32 %45, 0
  br i1 %46, label %48, label %47

47:                                               ; preds = %43
  store i32 8, ptr %2, align 4
  br label %59

48:                                               ; preds = %43
  %49 = load ptr, ptr %3, align 8
  %50 = call i32 @xstrcasecmp(ptr noundef %49, ptr noundef @.str.15)
  %51 = icmp ne i32 %50, 0
  br i1 %51, label %53, label %52

52:                                               ; preds = %48
  store i32 10, ptr %2, align 4
  br label %59

53:                                               ; preds = %48
  %54 = load ptr, ptr %3, align 8
  %55 = call i32 @xstrcasecmp(ptr noundef %54, ptr noundef @.str.16)
  %56 = icmp ne i32 %55, 0
  br i1 %56, label %58, label %57

57:                                               ; preds = %53
  store i32 11, ptr %2, align 4
  br label %59

58:                                               ; preds = %53
  store i32 -1, ptr %2, align 4
  br label %59

59:                                               ; preds = %58, %57, %52, %47, %42, %37, %32, %27, %22, %17, %12, %7
  %60 = load i32, ptr %2, align 4
  ret i32 %60
}