; Function Attrs: nounwind uwtable
define dso_local range(i32 -1, 12) i32 @decode_state_char(ptr noundef %0) local_unnamed_addr #5 {
  %2 = tail call i32 @xstrcasecmp(ptr noundef %0, ptr noundef nonnull @.str.6) #16
  %.not = icmp eq i32 %2, 0
  br i1 %.not, label %23, label %3

3:                                                ; preds = %1
  %4 = tail call i32 @xstrcasecmp(ptr noundef %0, ptr noundef nonnull @.str.7) #16
  %.not11 = icmp eq i32 %4, 0
  br i1 %.not11, label %23, label %5

5:                                                ; preds = %3
  %6 = tail call i32 @xstrcasecmp(ptr noundef %0, ptr noundef nonnull @.str.8) #16
  %.not12 = icmp eq i32 %6, 0
  br i1 %.not12, label %23, label %7

7:                                                ; preds = %5
  %8 = tail call i32 @xstrcasecmp(ptr noundef %0, ptr noundef nonnull @.str.9) #16
  %.not13 = icmp eq i32 %8, 0
  br i1 %.not13, label %23, label %9

9:                                                ; preds = %7
  %10 = tail call i32 @xstrcasecmp(ptr noundef %0, ptr noundef nonnull @.str.10) #16
  %.not14 = icmp eq i32 %10, 0
  br i1 %.not14, label %23, label %11

11:                                               ; preds = %9
  %12 = tail call i32 @xstrcasecmp(ptr noundef %0, ptr noundef nonnull @.str.11) #16
  %.not15 = icmp eq i32 %12, 0
  br i1 %.not15, label %23, label %13

13:                                               ; preds = %11
  %14 = tail call i32 @xstrcasecmp(ptr noundef %0, ptr noundef nonnull @.str.12) #16
  %.not16 = icmp eq i32 %14, 0
  br i1 %.not16, label %23, label %15

15:                                               ; preds = %13
  %16 = tail call i32 @xstrcasecmp(ptr noundef %0, ptr noundef nonnull @.str.13) #16
  %.not17 = icmp eq i32 %16, 0
  br i1 %.not17, label %23, label %17

17:                                               ; preds = %15
  %18 = tail call i32 @xstrcasecmp(ptr noundef %0, ptr noundef nonnull @.str.14) #16
  %.not18 = icmp eq i32 %18, 0
  br i1 %.not18, label %23, label %19

19:                                               ; preds = %17
  %20 = tail call i32 @xstrcasecmp(ptr noundef %0, ptr noundef nonnull @.str.15) #16
  %.not19 = icmp eq i32 %20, 0
  br i1 %.not19, label %23, label %21

21:                                               ; preds = %19
  %22 = tail call i32 @xstrcasecmp(ptr noundef %0, ptr noundef nonnull @.str.16) #16
  %.not20 = icmp eq i32 %22, 0
  %. = select i1 %.not20, i32 11, i32 -1
  br label %23

23:                                               ; preds = %21, %19, %17, %15, %13, %11, %9, %7, %5, %3, %1
  %.0 = phi i32 [ 0, %1 ], [ 1, %3 ], [ 2, %5 ], [ 3, %7 ], [ 4, %9 ], [ 5, %11 ], [ 6, %13 ], [ 7, %15 ], [ 8, %17 ], [ 10, %19 ], [ %., %21 ]
  ret i32 %.0
}